; Function Attrs: inlinehint mustprogress nounwind uwtable
define internal fastcc void @"_ZZN4pbrt10BasicScene8AddLightENS_16LightSceneEntityEEN3$_0D2Ev"(ptr noundef nonnull align 8 dereferenceable(888) %0) unnamed_addr #4 align 2 personality ptr @__gxx_personality_v0 {
  %2 = getelementptr inbounds nuw i8, ptr %0, i64 848
  %3 = load ptr, ptr %2, align 8, !tbaa !39
  %4 = getelementptr inbounds nuw i8, ptr %0, i64 864
  %5 = icmp eq ptr %3, %4
  br i1 %5, label %_ZNKSt7__cxx1112basic_stringIcSt11char_traitsIcESaIcEE11_M_is_localEv.exit.thread.i.i.i, label %_ZNKSt7__cxx1112basic_stringIcSt11char_traitsIcESaIcEE11_M_is_localEv.exit.i.i.i

_ZNKSt7__cxx1112basic_stringIcSt11char_traitsIcESaIcEE11_M_is_localEv.exit.thread.i.i.i: ; preds = %1
  %6 = getelementptr inbounds nuw i8, ptr %0, i64 856
  %7 = load i64, ptr %6, align 8, !tbaa !36
  %8 = icmp ult i64 %7, 16
  tail call void @llvm.assume(i1 %8)
  br label %_ZNSt7__cxx1112basic_stringIcSt11char_traitsIcESaIcEED2Ev.exit.i

_ZNKSt7__cxx1112basic_stringIcSt11char_traitsIcESaIcEE11_M_is_localEv.exit.i.i.i: ; preds = %1
  %9 = load i64, ptr %4, align 8, !tbaa !38
  %10 = add i64 %9, 1
  tail call void @_ZdlPvm(ptr noundef %3, i64 noundef %10) #36
  br label %_ZNSt7__cxx1112basic_stringIcSt11char_traitsIcESaIcEED2Ev.exit.i

_ZNSt7__cxx1112basic_stringIcSt11char_traitsIcESaIcEED2Ev.exit.i: ; preds = %_ZNKSt7__cxx1112basic_stringIcSt11char_traitsIcESaIcEE11_M_is_localEv.exit.i.i.i, %_ZNKSt7__cxx1112basic_stringIcSt11char_traitsIcESaIcEE11_M_is_localEv.exit.thread.i.i.i
  %11 = getelementptr inbounds nuw i8, ptr %0, i64 128
  store i64 0, ptr %11, align 8, !tbaa !65
  %12 = getelementptr inbounds nuw i8, ptr %0, i64 48
  %13 = load ptr, ptr %12, align 8, !tbaa !54
  %.not.i.i.i.i.i.i.i = icmp eq ptr %13, null
  br i1 %.not.i.i.i.i.i.i.i, label %_ZN4pbrt16LightSceneEntityD2Ev.exit, label %14

14:                                               ; preds = %_ZNSt7__cxx1112basic_stringIcSt11char_traitsIcESaIcEED2Ev.exit.i
  %15 = getelementptr inbounds nuw i8, ptr %0, i64 40
  %16 = getelementptr inbounds nuw i8, ptr %0, i64 120
  %17 = load i64, ptr %16, align 8, !tbaa !66
  %18 = shl i64 %17, 3
  %19 = load ptr, ptr %15, align 8, !tbaa !67
  %20 = load ptr, ptr %19, align 8, !tbaa !17
  %21 = getelementptr inbounds nuw i8, ptr %20, i64 24
  %22 = load ptr, ptr %21, align 8
  invoke void %22(ptr noundef nonnull align 8 dereferenceable(8) %19, ptr noundef nonnull %13, i64 noundef %18, i64 noundef 8)
          to label %_ZN4pbrt16LightSceneEntityD2Ev.exit unwind label %23

23:                                               ; preds = %14
  %24 = landingpad { ptr, i32 }
          catch ptr null
  %25 = extractvalue { ptr, i32 } %24, 0
  tail call void @__clang_call_terminate(ptr %25) #34
  unreachable

_ZN4pbrt16LightSceneEntityD2Ev.exit:              ; preds = %_ZNSt7__cxx1112basic_stringIcSt11char_traitsIcESaIcEED2Ev.exit.i, %14
  ret void
}